; Function Attrs: nounwind uwtable
define i32 @EVP_RAND_names_do_all(ptr noundef readonly captures(none) %0, ptr noundef %1, ptr noundef %2) local_unnamed_addr #0 {
  %4 = load ptr, ptr %0, align 8, !tbaa !23
  %.not = icmp eq ptr %4, null
  br i1 %.not, label %9, label %5

5:                                                ; preds = %3
  %6 = getelementptr inbounds nuw i8, ptr %0, i64 8
  %7 = load i32, ptr %6, align 8, !tbaa !21
  %8 = tail call i32 @evp_names_do_all(ptr noundef nonnull %4, i32 noundef %7, ptr noundef %1, ptr noundef %2) #8
  br label %9

9:                                                ; preds = %3, %5
  %.0 = phi i32 [ %8, %5 ], [ 1, %3 ]
  ret i32 %.0
}